Certificate:
    Data:
        Version: 3 (0x2)
        Serial Number:
            56:4e:80:62:f2:37:1b:fe:1a:de:67:60:b2:c9:af:77
        Signature Algorithm: sha256WithRSAEncryption
        Issuer: CN=vpn.localhost
        Validity
            Not Before: Feb 23 09:51:01 2022 GMT
            Not After : May 28 09:51:01 2024 GMT
        Subject: CN=vpn.localhost
        Subject Public Key Info:
            Public Key Algorithm: rsaEncryption
                RSA Public-Key: (2048 bit)
                Modulus:
                    00:ac:aa:a5:36:6b:8c:d2:51:96:83:89:a9:78:27:
                    60:07:9c:b6:94:1f:cf:cc:72:2a:07:0e:69:4a:94:
                    59:2d:f1:48:6e:10:24:d7:c8:e2:04:c4:19:21:40:
                    db:fd:fc:42:c2:76:f5:21:c0:8c:eb:ed:40:c9:f5:
                    bf:6e:17:38:c4:e6:31:fe:28:b6:97:46:db:db:ba:
                    07:67:b3:7c:9c:e7:1a:44:d9:8d:65:b0:eb:eb:1b:
                    f0:40:eb:dc:0d:24:40:ab:c2:75:50:78:3d:2a:8d:
                    ac:3e:f1:c8:0d:9a:a2:4c:3f:53:27:04:02:f9:63:
                    cf:6f:2a:9d:d5:bd:78:79:dc:e9:79:4b:d9:1b:73:
                    90:b4:da:4a:a8:b1:d9:4b:a2:0a:a1:43:18:73:85:
                    a1:13:ea:fa:f8:e3:b1:0d:59:b7:d5:02:dc:90:52:
                    6a:1f:08:e9:91:a4:5a:85:38:83:49:75:19:ba:e5:
                    7e:d7:69:6c:07:b3:a7:07:a2:56:2a:a9:db:9f:6d:
                    26:45:e5:da:99:e7:e9:13:aa:8c:ff:72:54:5a:96:
                    2c:2e:a9:bd:bf:18:90:c6:e2:3a:ed:c3:5f:2c:71:
                    60:5b:bd:01:ef:28:6c:93:40:33:0c:2f:9e:2f:f3:
                    ff:49:c7:56:1a:ef:e0:1f:7f:c1:ed:5a:47:6c:0c:
                    61:2d
                Exponent: 65537 (0x10001)
        X509v3 extensions:
            X509v3 Basic Constraints: 
                CA:FALSE
            X509v3 Subject Key Identifier: 
                C3:3C:E4:5C:D2:B2:30:0D:56:B5:D2:3C:2D:06:D5:D9:46:0E:34:85
            X509v3 Authority Key Identifier: 
                keyid:46:F0:D4:8A:47:52:F9:8E:81:9D:13:7F:F0:32:43:31:B5:90:6F:E9
                DirName:/CN=vpn.localhost
                serial:47:AC:68:9A:68:97:EF:90:47:41:7E:D3:1E:2D:0E:D9:A8:E5:FE:B7

            X509v3 Extended Key Usage: 
                TLS Web Server Authentication
            X509v3 Key Usage: 
                Digital Signature, Key Encipherment
            X509v3 Subject Alternative Name: 
                DNS:vpn.localhost
    Signature Algorithm: sha256WithRSAEncryption
         a7:06:5b:bb:8b:e1:21:2c:3e:03:ee:e7:de:95:0e:e0:a5:9b:
         9a:ab:c0:a5:17:4b:b6:f4:f2:fe:f4:59:4a:53:61:a2:e7:c7:
         92:6f:d3:9d:ec:4d:c8:62:39:8c:61:f0:12:bb:43:a5:d9:8a:
         64:6e:4e:65:71:83:de:3f:d5:03:a1:d1:8f:1d:4c:14:13:e9:
         08:0f:83:c4:92:18:9c:67:bd:cc:c8:04:fd:f3:f8:85:cd:6f:
         d2:84:d7:5b:a8:52:5f:c6:2b:1e:71:24:bc:d4:5f:f4:ec:dc:
         6c:07:b3:09:f7:3d:5e:7b:6e:e1:1f:b2:90:4e:a4:0e:10:b3:
         02:5b:34:ef:93:78:1a:2f:26:f0:bf:54:e3:65:17:01:63:b1:
         05:46:8c:86:d7:d2:8b:1e:28:64:05:ed:21:ba:de:8e:44:68:
         62:a3:bc:c4:82:9a:ce:96:39:ad:2b:d3:b7:fc:a6:98:69:8a:
         2e:72:e3:2c:fb:88:e2:7b:e6:ba:29:da:53:48:07:b8:b7:58:
         6c:f2:8f:5c:29:69:68:15:f7:14:b3:72:69:79:3b:35:6a:b1:
         a9:3b:5c:6b:ef:45:92:a2:93:f5:20:23:32:c3:1a:21:e3:e1:
         05:32:32:a3:09:b2:3f:64:6a:04:80:cb:25:b7:5e:20:9f:ca:
         35:bb:80:aa
-----BEGIN CERTIFICATE-----
MIIDeTCCAmGgAwIBAgIQVk6AYvI3G/4a3mdgssmvdzANBgkqhkiG9w0BAQsFADAY
MRYwFAYDVQQDDA12cG4ubG9jYWxob3N0MB4XDTIyMDIyMzA5NTEwMVoXDTI0MDUy
ODA5NTEwMVowGDEWMBQGA1UEAwwNdnBuLmxvY2FsaG9zdDCCASIwDQYJKoZIhvcN
AQEBBQADggEPADCCAQoCggEBAKyqpTZrjNJRloOJqXgnYAectpQfz8xyKgcOaUqU
WS3xSG4QJNfI4gTEGSFA2/38QsJ29SHAjOvtQMn1v24XOMTmMf4otpdG29u6B2ez
fJznGkTZjWWw6+sb8EDr3A0kQKvCdVB4PSqNrD7xyA2aokw/UycEAvljz28qndW9
eHnc6XlL2RtzkLTaSqix2UuiCqFDGHOFoRPq+vjjsQ1Zt9UC3JBSah8I6ZGkWoU4
g0l1GbrlftdpbAezpweiViqp259tJkXl2pnn6ROqjP9yVFqWLC6pvb8YkMbiOu3D
XyxxYFu9Ae8obJNAMwwvni/z/0nHVhrv4B9/we1aR2wMYS0CAwEAAaOBvjCBuzAJ
BgNVHRMEAjAAMB0GA1UdDgQWBBTDPORc0rIwDVa10jwtBtXZRg40hTBTBgNVHSME
TDBKgBRG8NSKR1L5joGdE3/wMkMxtZBv6aEcpBowGDEWMBQGA1UEAwwNdnBuLmxv
Y2FsaG9zdIIUR6xommiX75BHQX7THi0O2ajl/rcwEwYDVR0lBAwwCgYIKwYBBQUH
AwEwCwYDVR0PBAQDAgWgMBgGA1UdEQQRMA+CDXZwbi5sb2NhbGhvc3QwDQYJKoZI
hvcNAQELBQADggEBAKcGW7uL4SEsPgPu596VDuClm5qrwKUXS7b08v70WUpTYaLn
x5Jv053sTchiOYxh8BK7Q6XZimRuTmVxg94/1QOh0Y8dTBQT6QgPg8SSGJxnvczI
BP3z+IXNb9KE11uoUl/GKx5xJLzUX/Ts3GwHswn3PV57buEfspBOpA4QswJbNO+T
eBovJvC/VONlFwFjsQVGjIbX0oseKGQF7SG63o5EaGKjvMSCms6WOa0r07f8pphp
ii5y4yz7iOJ75rop2lNIB7i3WGzyj1wpaWgV9xSzcml5OzVqsak7XGvvRZKik/Ug
IzLDGiHj4QUyMqMJsj9kagSAyyW3XiCfyjW7gKo=
-----END CERTIFICATE-----
